target datalayout = "e-m:e-p270:32:32-p271:32:32-p272:64:64-i64:64-i128:128-f80:128-n8:16:32:64-S128"
target triple = "x86_64-pc-linux-gnu"

%struct.tls_group_info_st = type { ptr, ptr, ptr, i32, i16, i32, i32, i32, i32, i8 }
%struct.TLS_GROUP_IX = type { ptr, i64 }

@.str.2 = private unnamed_addr constant [24 x i8] c"../openssl/ssl/t1_lib.c\00", align 1

; Function Attrs: inlinehint nounwind uwtable
define internal void @sk_TLS_GROUP_IX_pop_free(ptr noundef %0, ptr noundef %1) #2 {
  %3 = alloca ptr, align 8
  %4 = alloca ptr, align 8
  store ptr %0, ptr %3, align 8, !tbaa !165
  store ptr %1, ptr %4, align 8, !tbaa !112
  %5 = load ptr, ptr %3, align 8, !tbaa !165
  %6 = load ptr, ptr %4, align 8, !tbaa !112
  call void @OPENSSL_sk_pop_free(ptr noundef %5, ptr noundef %6)
  ret void
}

; Function Attrs: inlinehint nounwind uwtable
define internal ptr @ossl_check_OPENSSL_CSTRING_type(ptr noundef %0) #2 {
  %2 = alloca ptr, align 8
  store ptr %0, ptr %2, align 8, !tbaa !172
  %3 = load ptr, ptr %2, align 8, !tbaa !172
  ret ptr %3
}

; Function Attrs: inlinehint nounwind uwtable
define internal ptr @ossl_check_OPENSSL_CSTRING_sk_type(ptr noundef %0) #2 {
  %2 = alloca ptr, align 8
  store ptr %0, ptr %2, align 8, !tbaa !163
  %3 = load ptr, ptr %2, align 8, !tbaa !163
  ret ptr %3
}

; Function Attrs: inlinehint nounwind uwtable
define internal ptr @sk_TLS_GROUP_IX_value(ptr noundef %0, i32 noundef %1) #2 {
  %3 = alloca ptr, align 8
  %4 = alloca i32, align 4
  store ptr %0, ptr %3, align 8, !tbaa !165
  store i32 %1, ptr %4, align 4, !tbaa !128
  %5 = load ptr, ptr %3, align 8, !tbaa !165
  %6 = load i32, ptr %4, align 4, !tbaa !128
  %7 = call ptr @OPENSSL_sk_value(ptr noundef %5, i32 noundef %6)
  ret ptr %7
}

; Function Attrs: inlinehint nounwind uwtable
define internal i32 @sk_TLS_GROUP_IX_num(ptr noundef %0) #2 {
  %2 = alloca ptr, align 8
  store ptr %0, ptr %2, align 8, !tbaa !165
  %3 = load ptr, ptr %2, align 8, !tbaa !165
  %4 = call i32 @OPENSSL_sk_num(ptr noundef %3)
  ret i32 %4
}

; Function Attrs: inlinehint nounwind uwtable
define internal void @sk_TLS_GROUP_IX_sort(ptr noundef %0) #2 {
  %2 = alloca ptr, align 8
  store ptr %0, ptr %2, align 8, !tbaa !165
  %3 = load ptr, ptr %2, align 8, !tbaa !165
  call void @OPENSSL_sk_sort(ptr noundef %3)
  ret void
}

; Function Attrs: inlinehint nounwind uwtable
define internal i32 @sk_TLS_GROUP_IX_push(ptr noundef %0, ptr noundef %1) #2 {
  %3 = alloca ptr, align 8
  %4 = alloca ptr, align 8
  store ptr %0, ptr %3, align 8, !tbaa !165
  store ptr %1, ptr %4, align 8, !tbaa !112
  %5 = load ptr, ptr %3, align 8, !tbaa !165
  %6 = load ptr, ptr %4, align 8, !tbaa !112
  %7 = call i32 @OPENSSL_sk_push(ptr noundef %5, ptr noundef %6)
  ret i32 %7
}

; Function Attrs: inlinehint nounwind uwtable
define internal ptr @sk_TLS_GROUP_IX_new(ptr noundef %0) #2 {
  %2 = alloca ptr, align 8
  store ptr %0, ptr %2, align 8, !tbaa !112
  %3 = load ptr, ptr %2, align 8, !tbaa !112
  %4 = call ptr @OPENSSL_sk_new(ptr noundef %3)
  ret ptr %4
}

; Function Attrs: nounwind uwtable
define i32 @tls1_get0_implemented_groups(i32 noundef %0, i32 noundef %1, ptr noundef %2, i64 noundef %3, i64 noundef %4, ptr noundef %5) #1 {
  %7 = alloca i32, align 4
  %8 = alloca i32, align 4
  %9 = alloca i32, align 4
  %10 = alloca ptr, align 8
  %11 = alloca i64, align 8
  %12 = alloca i64, align 8
  %13 = alloca ptr, align 8
  %14 = alloca ptr, align 8
  %15 = alloca ptr, align 8
  %16 = alloca i16, align 2
  %17 = alloca i32, align 4
  %18 = alloca i64, align 8
  %19 = alloca i32, align 4
  store i32 %0, ptr %8, align 4, !tbaa !128
  store i32 %1, ptr %9, align 4, !tbaa !128
  store ptr %2, ptr %10, align 8, !tbaa !126
  store i64 %3, ptr %11, align 8, !tbaa !3
  store i64 %4, ptr %12, align 8, !tbaa !3
  store ptr %5, ptr %13, align 8, !tbaa !163
  call void @llvm.lifetime.start.p0(i64 8, ptr %14) #8
  store ptr null, ptr %14, align 8, !tbaa !165
  call void @llvm.lifetime.start.p0(i64 8, ptr %15) #8
  call void @llvm.lifetime.start.p0(i64 2, ptr %16) #8
  store i16 0, ptr %16, align 2, !tbaa !100
  call void @llvm.lifetime.start.p0(i64 4, ptr %17) #8
  store i32 0, ptr %17, align 4, !tbaa !128
  call void @llvm.lifetime.start.p0(i64 8, ptr %18) #8
  %20 = load ptr, ptr %10, align 8, !tbaa !126
  %21 = icmp eq ptr %20, null
  br i1 %21, label %25, label %22

22:                                               ; preds = %6
  %23 = load ptr, ptr %13, align 8, !tbaa !163
  %24 = icmp eq ptr %23, null
  br i1 %24, label %25, label %26

25:                                               ; preds = %22, %6
  store i32 0, ptr %7, align 4
  store i32 1, ptr %19, align 4
  br label %139

26:                                               ; preds = %22
  %27 = call ptr @sk_TLS_GROUP_IX_new(ptr noundef @tls_group_ix_cmp)
  store ptr %27, ptr %14, align 8, !tbaa !165
  %28 = icmp eq ptr %27, null
  br i1 %28, label %29, label %30

29:                                               ; preds = %26
  store i32 0, ptr %7, align 4
  store i32 1, ptr %19, align 4
  br label %139

30:                                               ; preds = %26
  store i64 0, ptr %18, align 8, !tbaa !3
  br label %31

31:                                               ; preds = %82, %30
  %32 = load i64, ptr %18, align 8, !tbaa !3
  %33 = load i64, ptr %11, align 8, !tbaa !3
  %34 = icmp ult i64 %32, %33
  br i1 %34, label %35, label %87

35:                                               ; preds = %31
  %36 = load ptr, ptr %10, align 8, !tbaa !126
  %37 = getelementptr inbounds nuw %struct.tls_group_info_st, ptr %36, i32 0, i32 5
  %38 = load i32, ptr %37, align 8, !tbaa !157
  %39 = icmp sgt i32 %38, 0
  br i1 %39, label %40, label %50

40:                                               ; preds = %35
  %41 = load i32, ptr %9, align 4, !tbaa !128
  %42 = icmp sgt i32 %41, 0
  br i1 %42, label %43, label %50

43:                                               ; preds = %40
  %44 = load ptr, ptr %10, align 8, !tbaa !126
  %45 = getelementptr inbounds nuw %struct.tls_group_info_st, ptr %44, i32 0, i32 5
  %46 = load i32, ptr %45, align 8, !tbaa !157
  %47 = load i32, ptr %9, align 4, !tbaa !128
  %48 = icmp sgt i32 %46, %47
  br i1 %48, label %49, label %50

49:                                               ; preds = %43
  br label %82

50:                                               ; preds = %43, %40, %35
  %51 = load ptr, ptr %10, align 8, !tbaa !126
  %52 = getelementptr inbounds nuw %struct.tls_group_info_st, ptr %51, i32 0, i32 6
  %53 = load i32, ptr %52, align 4, !tbaa !159
  %54 = icmp sgt i32 %53, 0
  br i1 %54, label %55, label %65

55:                                               ; preds = %50
  %56 = load i32, ptr %8, align 4, !tbaa !128
  %57 = icmp sgt i32 %56, 0
  br i1 %57, label %58, label %65

58:                                               ; preds = %55
  %59 = load ptr, ptr %10, align 8, !tbaa !126
  %60 = getelementptr inbounds nuw %struct.tls_group_info_st, ptr %59, i32 0, i32 6
  %61 = load i32, ptr %60, align 4, !tbaa !159
  %62 = load i32, ptr %8, align 4, !tbaa !128
  %63 = icmp slt i32 %61, %62
  br i1 %63, label %64, label %65

64:                                               ; preds = %58
  br label %82

65:                                               ; preds = %58, %55, %50
  %66 = call noalias ptr @CRYPTO_malloc(i64 noundef 16, ptr noundef @.str.2, i32 noundef 1015)
  store ptr %66, ptr %15, align 8, !tbaa !112
  %67 = icmp eq ptr %66, null
  br i1 %67, label %68, label %69

68:                                               ; preds = %65
  br label %136

69:                                               ; preds = %65
  %70 = load ptr, ptr %10, align 8, !tbaa !126
  %71 = load ptr, ptr %15, align 8, !tbaa !112
  %72 = getelementptr inbounds nuw %struct.TLS_GROUP_IX, ptr %71, i32 0, i32 0
  store ptr %70, ptr %72, align 8, !tbaa !167
  %73 = load i64, ptr %18, align 8, !tbaa !3
  %74 = load ptr, ptr %15, align 8, !tbaa !112
  %75 = getelementptr inbounds nuw %struct.TLS_GROUP_IX, ptr %74, i32 0, i32 1
  store i64 %73, ptr %75, align 8, !tbaa !169
  %76 = load ptr, ptr %14, align 8, !tbaa !165
  %77 = load ptr, ptr %15, align 8, !tbaa !112
  %78 = call i32 @sk_TLS_GROUP_IX_push(ptr noundef %76, ptr noundef %77)
  %79 = icmp sle i32 %78, 0
  br i1 %79, label %80, label %81

80:                                               ; preds = %69
  br label %136

81:                                               ; preds = %69
  br label %82

82:                                               ; preds = %81, %64, %49
  %83 = load i64, ptr %18, align 8, !tbaa !3
  %84 = add i64 %83, 1
  store i64 %84, ptr %18, align 8, !tbaa !3
  %85 = load ptr, ptr %10, align 8, !tbaa !126
  %86 = getelementptr inbounds nuw %struct.tls_group_info_st, ptr %85, i32 1
  store ptr %86, ptr %10, align 8, !tbaa !126
  br label %31, !llvm.loop !170

87:                                               ; preds = %31
  %88 = load ptr, ptr %14, align 8, !tbaa !165
  call void @sk_TLS_GROUP_IX_sort(ptr noundef %88)
  %89 = load ptr, ptr %14, align 8, !tbaa !165
  %90 = call i32 @sk_TLS_GROUP_IX_num(ptr noundef %89)
  %91 = sext i32 %90 to i64
  store i64 %91, ptr %11, align 8, !tbaa !3
  store i64 0, ptr %18, align 8, !tbaa !3
  br label %92

92:                                               ; preds = %132, %87
  %93 = load i64, ptr %18, align 8, !tbaa !3
  %94 = load i64, ptr %11, align 8, !tbaa !3
  %95 = icmp ult i64 %93, %94
  br i1 %95, label %96, label %135

96:                                               ; preds = %92
  %97 = load ptr, ptr %14, align 8, !tbaa !165
  %98 = load i64, ptr %18, align 8, !tbaa !3
  %99 = trunc i64 %98 to i32
  %100 = call ptr @sk_TLS_GROUP_IX_value(ptr noundef %97, i32 noundef %99)
  store ptr %100, ptr %15, align 8, !tbaa !112
  %101 = load i64, ptr %12, align 8, !tbaa !3
  %102 = icmp ne i64 %101, 0
  br i1 %102, label %114, label %103

103:                                              ; preds = %96
  %104 = load ptr, ptr %15, align 8, !tbaa !112
  %105 = getelementptr inbounds nuw %struct.TLS_GROUP_IX, ptr %104, i32 0, i32 0
  %106 = load ptr, ptr %105, align 8, !tbaa !167
  %107 = getelementptr inbounds nuw %struct.tls_group_info_st, ptr %106, i32 0, i32 4
  %108 = load i16, ptr %107, align 4, !tbaa !98
  %109 = zext i16 %108 to i32
  %110 = load i16, ptr %16, align 2, !tbaa !100
  %111 = zext i16 %110 to i32
  %112 = icmp eq i32 %109, %111
  br i1 %112, label %113, label %114

113:                                              ; preds = %103
  br label %132

114:                                              ; preds = %103, %96
  %115 = load ptr, ptr %15, align 8, !tbaa !112
  %116 = getelementptr inbounds nuw %struct.TLS_GROUP_IX, ptr %115, i32 0, i32 0
  %117 = load ptr, ptr %116, align 8, !tbaa !167
  %118 = getelementptr inbounds nuw %struct.tls_group_info_st, ptr %117, i32 0, i32 4
  %119 = load i16, ptr %118, align 4, !tbaa !98
  store i16 %119, ptr %16, align 2, !tbaa !100
  %120 = load ptr, ptr %13, align 8, !tbaa !163
  %121 = call ptr @ossl_check_OPENSSL_CSTRING_sk_type(ptr noundef %120)
  %122 = load ptr, ptr %15, align 8, !tbaa !112
  %123 = getelementptr inbounds nuw %struct.TLS_GROUP_IX, ptr %122, i32 0, i32 0
  %124 = load ptr, ptr %123, align 8, !tbaa !167
  %125 = getelementptr inbounds nuw %struct.tls_group_info_st, ptr %124, i32 0, i32 0
  %126 = load ptr, ptr %125, align 8, !tbaa !127
  %127 = call ptr @ossl_check_OPENSSL_CSTRING_type(ptr noundef %126)
  %128 = call i32 @OPENSSL_sk_push(ptr noundef %121, ptr noundef %127)
  %129 = icmp sle i32 %128, 0
  br i1 %129, label %130, label %131

130:                                              ; preds = %114
  br label %136

131:                                              ; preds = %114
  br label %132

132:                                              ; preds = %131, %113
  %133 = load i64, ptr %18, align 8, !tbaa !3
  %134 = add i64 %133, 1
  store i64 %134, ptr %18, align 8, !tbaa !3
  br label %92, !llvm.loop !171

135:                                              ; preds = %92
  store i32 1, ptr %17, align 4, !tbaa !128
  br label %136

136:                                              ; preds = %135, %130, %80, %68
  %137 = load ptr, ptr %14, align 8, !tbaa !165
  call void @sk_TLS_GROUP_IX_pop_free(ptr noundef %137, ptr noundef @free_wrapper)
  %138 = load i32, ptr %17, align 4, !tbaa !128
  store i32 %138, ptr %7, align 4
  store i32 1, ptr %19, align 4
  br label %139

139:                                              ; preds = %136, %29, %25
  call void @llvm.lifetime.end.p0(i64 8, ptr %18) #8
  call void @llvm.lifetime.end.p0(i64 4, ptr %17) #8
  call void @llvm.lifetime.end.p0(i64 2, ptr %16) #8
  call void @llvm.lifetime.end.p0(i64 8, ptr %15) #8
  call void @llvm.lifetime.end.p0(i64 8, ptr %14) #8
  %140 = load i32, ptr %7, align 4
  ret i32 %140
}