; Function Attrs: nounwind uwtable
define range(i32 0, 2) i32 @tls1_get0_implemented_groups(i32 noundef %0, i32 noundef %1, ptr noundef %2, i64 noundef %3, i64 noundef %4, ptr noundef %5) local_unnamed_addr #2 {
  %7 = icmp eq ptr %2, null
  %8 = icmp eq ptr %5, null
  %or.cond = or i1 %7, %8
  br i1 %or.cond, label %88, label %9

9:                                                ; preds = %6
  %10 = tail call ptr @OPENSSL_sk_new(ptr noundef nonnull @tls_group_ix_cmp) #14
  %11 = icmp eq ptr %10, null
  br i1 %11, label %88, label %.preheader

.preheader:                                       ; preds = %9
  %.not69 = icmp eq i64 %3, 0
  br i1 %.not69, label %._crit_edge, label %.lr.ph

.lr.ph:                                           ; preds = %.preheader
  %12 = icmp sgt i32 %1, 0
  %13 = icmp sgt i32 %0, 0
  br i1 %12, label %.lr.ph.split, label %.lr.ph.split.us

.lr.ph.split.us:                                  ; preds = %.lr.ph
  br i1 %13, label %.lr.ph.split.us.split, label %.lr.ph.split.us.split.us

.lr.ph.split.us.split.us:                         ; preds = %.lr.ph.split.us, %20
  %.057.us.us = phi i64 [ %21, %20 ], [ 0, %.lr.ph.split.us ]
  %.04456.us.us = phi ptr [ %22, %20 ], [ %2, %.lr.ph.split.us ]
  %14 = tail call noalias ptr @CRYPTO_malloc(i64 noundef 16, ptr noundef nonnull @.str.2, i32 noundef 1015) #14
  %15 = icmp eq ptr %14, null
  br i1 %15, label %.loopexit, label %16

16:                                               ; preds = %.lr.ph.split.us.split.us
  store ptr %.04456.us.us, ptr %14, align 8, !tbaa !143
  %17 = getelementptr inbounds nuw i8, ptr %14, i64 8
  store i64 %.057.us.us, ptr %17, align 8, !tbaa !145
  %18 = tail call i32 @OPENSSL_sk_push(ptr noundef nonnull %10, ptr noundef nonnull %14) #14
  %19 = icmp slt i32 %18, 1
  br i1 %19, label %.loopexit, label %20

20:                                               ; preds = %16
  %21 = add nuw i64 %.057.us.us, 1
  %22 = getelementptr inbounds nuw i8, ptr %.04456.us.us, i64 56
  %exitcond.not = icmp eq i64 %21, %3
  br i1 %exitcond.not, label %._crit_edge, label %.lr.ph.split.us.split.us, !llvm.loop !146

.lr.ph.split.us.split:                            ; preds = %.lr.ph.split.us, %34
  %.057.us = phi i64 [ %35, %34 ], [ 0, %.lr.ph.split.us ]
  %.04456.us = phi ptr [ %36, %34 ], [ %2, %.lr.ph.split.us ]
  %23 = getelementptr inbounds nuw i8, ptr %.04456.us, i64 36
  %24 = load i32, ptr %23, align 4, !tbaa !147
  %25 = icmp sgt i32 %24, 0
  %26 = icmp slt i32 %24, %0
  %or.cond54.us = and i1 %26, %25
  br i1 %or.cond54.us, label %34, label %27

27:                                               ; preds = %.lr.ph.split.us.split
  %28 = tail call noalias ptr @CRYPTO_malloc(i64 noundef 16, ptr noundef nonnull @.str.2, i32 noundef 1015) #14
  %29 = icmp eq ptr %28, null
  br i1 %29, label %.loopexit, label %30

30:                                               ; preds = %27
  store ptr %.04456.us, ptr %28, align 8, !tbaa !143
  %31 = getelementptr inbounds nuw i8, ptr %28, i64 8
  store i64 %.057.us, ptr %31, align 8, !tbaa !145
  %32 = tail call i32 @OPENSSL_sk_push(ptr noundef nonnull %10, ptr noundef nonnull %28) #14
  %33 = icmp slt i32 %32, 1
  br i1 %33, label %.loopexit, label %34

34:                                               ; preds = %30, %.lr.ph.split.us.split
  %35 = add nuw i64 %.057.us, 1
  %36 = getelementptr inbounds nuw i8, ptr %.04456.us, i64 56
  %exitcond80.not = icmp eq i64 %35, %3
  br i1 %exitcond80.not, label %._crit_edge, label %.lr.ph.split.us.split, !llvm.loop !146

.lr.ph.split:                                     ; preds = %.lr.ph
  br i1 %13, label %.lr.ph.split.split, label %.lr.ph.split.split.us

.lr.ph.split.split.us:                            ; preds = %.lr.ph.split, %46
  %.057.us58 = phi i64 [ %47, %46 ], [ 0, %.lr.ph.split ]
  %.04456.us59 = phi ptr [ %48, %46 ], [ %2, %.lr.ph.split ]
  %37 = getelementptr inbounds nuw i8, ptr %.04456.us59, i64 32
  %38 = load i32, ptr %37, align 8, !tbaa !148
  %or.cond53.us = icmp sgt i32 %38, %1
  br i1 %or.cond53.us, label %46, label %39

39:                                               ; preds = %.lr.ph.split.split.us
  %40 = tail call noalias ptr @CRYPTO_malloc(i64 noundef 16, ptr noundef nonnull @.str.2, i32 noundef 1015) #14
  %41 = icmp eq ptr %40, null
  br i1 %41, label %.loopexit, label %42

42:                                               ; preds = %39
  store ptr %.04456.us59, ptr %40, align 8, !tbaa !143
  %43 = getelementptr inbounds nuw i8, ptr %40, i64 8
  store i64 %.057.us58, ptr %43, align 8, !tbaa !145
  %44 = tail call i32 @OPENSSL_sk_push(ptr noundef nonnull %10, ptr noundef nonnull %40) #14
  %45 = icmp slt i32 %44, 1
  br i1 %45, label %.loopexit, label %46

46:                                               ; preds = %42, %.lr.ph.split.split.us
  %47 = add nuw i64 %.057.us58, 1
  %48 = getelementptr inbounds nuw i8, ptr %.04456.us59, i64 56
  %exitcond81.not = icmp eq i64 %47, %3
  br i1 %exitcond81.not, label %._crit_edge, label %.lr.ph.split.split.us, !llvm.loop !146

.lr.ph.split.split:                               ; preds = %.lr.ph.split, %63
  %.057 = phi i64 [ %64, %63 ], [ 0, %.lr.ph.split ]
  %.04456 = phi ptr [ %65, %63 ], [ %2, %.lr.ph.split ]
  %49 = getelementptr inbounds nuw i8, ptr %.04456, i64 32
  %50 = load i32, ptr %49, align 8, !tbaa !148
  %or.cond53 = icmp sgt i32 %50, %1
  br i1 %or.cond53, label %63, label %51

51:                                               ; preds = %.lr.ph.split.split
  %52 = getelementptr inbounds nuw i8, ptr %.04456, i64 36
  %53 = load i32, ptr %52, align 4, !tbaa !147
  %54 = icmp sgt i32 %53, 0
  %55 = icmp slt i32 %53, %0
  %or.cond54 = and i1 %55, %54
  br i1 %or.cond54, label %63, label %56

56:                                               ; preds = %51
  %57 = tail call noalias ptr @CRYPTO_malloc(i64 noundef 16, ptr noundef nonnull @.str.2, i32 noundef 1015) #14
  %58 = icmp eq ptr %57, null
  br i1 %58, label %.loopexit, label %59

59:                                               ; preds = %56
  store ptr %.04456, ptr %57, align 8, !tbaa !143
  %60 = getelementptr inbounds nuw i8, ptr %57, i64 8
  store i64 %.057, ptr %60, align 8, !tbaa !145
  %61 = tail call i32 @OPENSSL_sk_push(ptr noundef nonnull %10, ptr noundef nonnull %57) #14
  %62 = icmp slt i32 %61, 1
  br i1 %62, label %.loopexit, label %63

63:                                               ; preds = %51, %.lr.ph.split.split, %59
  %64 = add nuw i64 %.057, 1
  %65 = getelementptr inbounds nuw i8, ptr %.04456, i64 56
  %exitcond82.not = icmp eq i64 %64, %3
  br i1 %exitcond82.not, label %._crit_edge, label %.lr.ph.split.split, !llvm.loop !146

._crit_edge:                                      ; preds = %20, %34, %46, %63, %.preheader
  tail call void @OPENSSL_sk_sort(ptr noundef nonnull %10) #14
  %66 = tail call i32 @OPENSSL_sk_num(ptr noundef nonnull %10) #14
  %67 = sext i32 %66 to i64
  %.not70 = icmp eq i32 %66, 0
  br i1 %.not70, label %.loopexit, label %.lr.ph65

.lr.ph65:                                         ; preds = %._crit_edge
  %.not = icmp eq i64 %4, 0
  br i1 %.not, label %.lr.ph65.split.us, label %.lr.ph65.split

.lr.ph65.split.us:                                ; preds = %.lr.ph65, %78
  %.163.us = phi i64 [ %79, %78 ], [ 0, %.lr.ph65 ]
  %.04162.us = phi i16 [ %.142.us, %78 ], [ 0, %.lr.ph65 ]
  %68 = trunc i64 %.163.us to i32
  %69 = tail call ptr @OPENSSL_sk_value(ptr noundef nonnull %10, i32 noundef %68) #14
  %70 = load ptr, ptr %69, align 8, !tbaa !143
  %71 = getelementptr inbounds nuw i8, ptr %70, i64 28
  %72 = load i16, ptr %71, align 4, !tbaa !96
  %73 = icmp eq i16 %72, %.04162.us
  br i1 %73, label %78, label %74

74:                                               ; preds = %.lr.ph65.split.us
  %75 = load ptr, ptr %70, align 8, !tbaa !120
  %76 = tail call i32 @OPENSSL_sk_push(ptr noundef nonnull %5, ptr noundef %75) #14
  %77 = icmp slt i32 %76, 1
  br i1 %77, label %.loopexit, label %78

78:                                               ; preds = %74, %.lr.ph65.split.us
  %.142.us = phi i16 [ %72, %74 ], [ %.04162.us, %.lr.ph65.split.us ]
  %79 = add nuw i64 %.163.us, 1
  %exitcond84.not = icmp eq i64 %79, %67
  br i1 %exitcond84.not, label %.loopexit, label %.lr.ph65.split.us, !llvm.loop !149

.lr.ph65.split:                                   ; preds = %.lr.ph65, %86
  %.163 = phi i64 [ %87, %86 ], [ 0, %.lr.ph65 ]
  %80 = trunc i64 %.163 to i32
  %81 = tail call ptr @OPENSSL_sk_value(ptr noundef nonnull %10, i32 noundef %80) #14
  %82 = load ptr, ptr %81, align 8, !tbaa !143
  %83 = load ptr, ptr %82, align 8, !tbaa !120
  %84 = tail call i32 @OPENSSL_sk_push(ptr noundef nonnull %5, ptr noundef %83) #14
  %85 = icmp slt i32 %84, 1
  br i1 %85, label %.loopexit, label %86

86:                                               ; preds = %.lr.ph65.split
  %87 = add nuw i64 %.163, 1
  %exitcond83.not = icmp eq i64 %87, %67
  br i1 %exitcond83.not, label %.loopexit, label %.lr.ph65.split, !llvm.loop !149

.loopexit:                                        ; preds = %.lr.ph.split.us.split.us, %16, %27, %30, %39, %42, %59, %56, %.lr.ph65.split, %86, %74, %78, %._crit_edge
  %.040 = phi i32 [ 1, %._crit_edge ], [ 0, %74 ], [ 1, %78 ], [ 0, %.lr.ph65.split ], [ 1, %86 ], [ 0, %56 ], [ 0, %59 ], [ 0, %42 ], [ 0, %39 ], [ 0, %30 ], [ 0, %27 ], [ 0, %16 ], [ 0, %.lr.ph.split.us.split.us ]
  tail call void @OPENSSL_sk_pop_free(ptr noundef nonnull %10, ptr noundef nonnull @free_wrapper) #14
  br label %88

88:                                               ; preds = %9, %6, %.loopexit
  %.043 = phi i32 [ %.040, %.loopexit ], [ 0, %6 ], [ 0, %9 ]
  ret i32 %.043
}